(lp0
I1
aI1
aI12
aI6
aI4
aI0
aI13
aI7
aI14
aI4
aI12
aI4
aI0
aI8
aI9
aI4
aI0
aI8
aI13
aI15
aI17
aI4
aI0
aI7
aI0
aI1
aI2
aI4
aI0
aI70
aI2
aI2
aI4
aI52
aI0
aI3
aI3
aI5
aI28
aI5
aI28
aI0
aI3
aI2
aI6
aI0
aI0
aI14
aI67
aI0
aI1
aI37
aI3
aI3
aI2
aI0
aI12
aI3
aI31
aI21
aI8
aI25
aI7
aI4
aI1
aI0
aI0
aI0
aI1
aI16
aI27
aI3
aI0
aI0
aI0
aI0
aI0
aI0
aI0
aI2
aI2
aI2
aI4
aI1
aI2
aI1
aI33
aI2
aI4
aI6
aI2
aI3
aI0
aI0
aI3
aI9
aI10
aI8
aI19
aI1
aI2
aI5
aI1
aI0
aI9
aI10
aI13
aI38
aI13
aI7
aI1
aI16
aI19
aI2
aI0
aI7
aI5
aI1
aI0
aI28
aI0
aI1
aI1
aI5
aI14
aI4
aI11
aI8
aI5
aI32
aI0
aI0
aI14
aI6
aI2
aI6
aI8
aI1
aI8
aI6
aI6
aI2
aI10
aI11
aI12
aI2
aI13
aI2
aI9
aI0
aI6
aI3
aI23
aI12
aI0
aI0
aI12
aI18
aI34
aI3
aI0
aI3
aI0
aI8
aI6
aI7
aI0
aI8
aI3
aI0
aI1
aI2
aI8
aI1
aI27
aI61
aI14
aI1
aI11
aI13
aI1
aI16
aI26
aI0
aI25
aI1
aI1
aI3
aI0
aI68
aI12
aI148
aI22
aI13
aI10
aI0
aI3
aI2
aI0
aI7
aI3
aI117
aI0
aI16
aI0
aI0
aI1
aI13
aI0
aI12
aI0
aI15
aI6
aI28
aI107
aI1
aI1
aI0
aI0
aI16
aI51
aI0
aI3
aI21
aI49
aI9
aI20
aI3
aI7
aI43
aI2
aI15
aI17
aI1
aI2
aI1
aI4
aI9
aI3
aI12
aI0
aI1
aI74
aI11
aI2
aI15
aI7
aI15
aI6
aI0
aI0
aI0
aI0
aI0
aI4
aI1
aI1
aI20
aI5
aI19
aI0
aI11
aI2
aI0
aI12
aI40
aI34
aI2
aI27
aI9
aI15
aI18
aI7
aI0
aI0
aI0
aI0
aI14
aI297
aI7
aI60
aI8
aI95
aI18
aI2
aI0
aI58
aI0
aI30
aI30
aI2
aI0
aI0
aI337
aI4
aI0
aI7
aI12
aI3
aI3
aI0
aI1
aI5
aI15
aI4
aI8
aI6
aI4
aI0
aI11
aI6
aI4
aI0
aI256
aI12
aI0
aI33
aI0
aI6
aI12
aI0
aI4
aI1
aI0
aI0
aI1
aI1
aI34
aI1
aI1
aI0
aI2
aI14
aI3
aI1
aI7
aI25
aI5
aI2
aI3
aI0
aI13
aI9
aI4
aI7
aI7
aI1
aI10
aI12
aI6
aI0
aI0
aI2
aI10
aI1
aI4
aI4
aI20
aI3
aI3
aI1
aI0
aI20
aI0
aI5
aI1
aI1
aI17
aI4
aI11
aI12
aI18
aI2
aI0
aI11
aI21
aI5
aI0
aNaI0
aI28
aI0
aI8
aI2
aI0
aI4
aI9
aI6
aI2
aI1
aI1
aI2
aI0
aI0
aI14
aI23
aI10
aI1
aI0
aI1
aI4
aI24
aI5
aI2
aI15
aI15
aI3
aI3
aI9
aI0
aI0
aI0
aI0
aI6
aI65
aI28
aI1
aI0
aI0
aI4
aI126
aI5
aI15
aI58
aI2
aI0
aI0
aI2
aI29
aI9
aI15
aI0
aI23
aI3
aI0
aI1
aI2
aI5
aI2
aI15
aI1
aI1
aI0
aI7
aI0
aI1
aI9
aI6
aI0
aI111
aI11
aI16
aI0
aI1
aI3
aI12
aI1
aI2
aI2
aI20
aI0
aI0
aI0
aI8
aI0
aI13
aI7
aI1
aI7
aI1
aI54
aI7
aI0
aI0
aI14
aI14
aI9
aI0
aI5
aI13
aI0
aI1
aI26
aI4
aI1
aI3
aI0
a.