(lp0
(lp1
I2572
aI1
aI9
aa(lp2
I2691
aI1
aI30
aa(lp3
I1879
aI12
aI28
aa(lp4
I2582
aI6
aI12
aa(lp5
I1701
aI4
aI3
aa(lp6
I3181
aI0
aI1
aa(lp7
I9172
aI13
aI23
aa(lp8
I4891
aI7
aI28
aa(lp9
I1673
aI14
aI16
aa(lp10
I507
aI4
aI1
aa(lp11
I3129
aI12
aI20
aa(lp12
I1291
aI4
aI7
aa(lp13
I3423
aI0
aI11
aa(lp14
I5001
aI8
aI26
aa(lp15
I4184
aI9
aI16
aa(lp16
I7287
aI4
aI13
aa(lp17
I2294
aI0
aI6
aa(lp18
I1350
aI8
aI9
aa(lp19
I7238
aI13
aI20
aa(lp20
I3522
aI15
aI36
aa(lp21
I2099
aI17
aI37
aa(lp22
I5367
aI4
aI9
aa(lp23
I927
aI0
aI1
aa(lp24
I2422
aI7
aI4
aa(lp25
I361
aI0
aI2
aa(lp26
I2928
aI1
aI16
aa(lp27
I574
aI2
aI1
aa(lp28
I2908
aI4
aI25
aa(lp29
I4528
aI0
aI10
aa(lp30
I5498
aI70
aI14
aa(lp31
I554
aI2
aI3
aa(lp32
I1064
aI2
aI6
aa(lp33
I2064
aI4
aI6
aa(lp34
I2971
aI52
aI22
aa(lp35
I462
aI0
aI1
aa(lp36
I2719
aI3
aI11
aa(lp37
I1210
aI3
aI2
aa(lp38
I6269
aI5
aI41
aa(lp39
I2974
aI28
aI31
aa(lp40
I5417
aI5
aI26
aa(lp41
I3110
aI28
aI21
aa(lp42
I936
aI0
aI3
aa(lp43
I859
aI3
aI4
aa(lp44
I806
aI2
aI10
aa(lp45
I5491
aI6
aI45
aa(lp46
I106
aI0
aI1
aa(lp47
I104
aI0
aI1
aa(lp48
I1898
aI14
aI21
aa(lp49
I2458
aI67
aI9
aa(lp50
I716
aI0
aI1
aa(lp51
I1249
aI1
aI2
aa(lp52
I2220
aI37
aI10
aa(lp53
I945
aI3
aI1
aa(lp54
I3466
aI3
aI2
aa(lp55
I709
aI2
aI3
aa(lp56
I1082
aI0
aI3
aa(lp57
I6674
aI12
aI42
aa(lp58
I2371
aI3
aI13
aa(lp59
I3937
aI31
aI16
aa(lp60
I3021
aI21
aI92
aa(lp61
I1976
aI8
aI23
aa(lp62
I8895
aI25
aI30
aa(lp63
I3264
aI7
aI43
aa(lp64
I1448
aI4
aI1
aa(lp65
I861
aI1
aI1
aa(lp66
I701
aI0
aI1
aa(lp67
I548
aI0
aI1
aa(lp68
I1238
aI0
aI3
aa(lp69
I1308
aI1
aI3
aa(lp70
I4807
aI16
aI34
aa(lp71
I3405
aI27
aI50
aa(lp72
I5436
aI3
aI8
aa(lp73
I417
aI0
aI2
aa(lp74
I2312
aI0
aI1
aa(lp75
I1200
aI0
aI4
aa(lp76
I553
aI0
aI1
aa(lp77
I707
aI0
aI1
aa(lp78
I773
aI0
aI1
aa(lp79
I515
aI0
aI1
aa(lp80
I888
aI2
aI5
aa(lp81
I389
aI2
aI3
aa(lp82
I844
aI2
aI12
aa(lp83
I7540
aI4
aI28
aa(lp84
I3477
aI1
aI6
aa(lp85
I2435
aI2
aI2
aa(lp86
I258
aI1
aI2
aa(lp87
I4602
aI33
aI38
aa(lp88
I1623
aI2
aI12
aa(lp89
I5277
aI4
aI11
aa(lp90
I3391
aI6
aI29
aa(lp91
I3123
aI2
aI108
aa(lp92
I3165
aI3
aI4
aa(lp93
I239
aI0
aI2
aa(lp94
I610
aI0
aI1
aa(lp95
I3146
aI3
aI7
aa(lp96
I5329
aI9
aI90
aa(lp97
I6266
aI10
aI49
aa(lp98
I5191
aI8
aI31
aa(lp99
I1328
aI19
aI18
aa(lp100
I1076
aI1
aI1
aa(lp101
I702
aI2
aI2
aa(lp102
I3520
aI5
aI3
aa(lp103
I649
aI1
aI28
aa(lp104
I1086
aI0
aI3
aa(lp105
I4607
aI9
aI21
aa(lp106
I983
aI10
aI21
aa(lp107
I7668
aI13
aI64
aa(lp108
I3172
aI38
aI46
aa(lp109
I16438
aI13
aI70
aa(lp110
I17772
aI7
aI13
aa(lp111
I572
aI1
aI2
aa(lp112
I1205
aI16
aI15
aa(lp113
I3475
aI19
aI30
aa(lp114
I621
aI2
aI5
aa(lp115
I766
aI0
aI2
aa(lp116
I1368
aI7
aI5
aa(lp117
I2861
aI5
aI14
aa(lp118
I726
aI1
aI4
aa(lp119
I854
aI0
aI3
aa(lp120
I4431
aI28
aI63
aa(lp121
I248
aI0
aI2
aa(lp122
I3044
aI1
aI5
aa(lp123
I1253
aI1
aI5
aa(lp124
I1093
aI5
aI19
aa(lp125
I8092
aI14
aI11
aa(lp126
I1669
aI4
aI8
aa(lp127
I6147
aI11
aI17
aa(lp128
I3946
aI8
aI14
aa(lp129
I3356
aI0
aI2
aa(lp130
I2716
aI32
aI26
aa(lp131
I834
aI0
aI3
aa(lp132
I1615
aI0
aI1
aa(lp133
I4928
aI14
aI23
aa(lp134
I2226
aI6
aI17
aa(lp135
I737
aI2
aI2
aa(lp136
I888
aI6
aI2
aa(lp137
I1817
aI8
aI48
aa(lp138
I1331
aI1
aI7
aa(lp139
I1049
aI8
aI1
aa(lp140
I2506
aI6
aI22
aa(lp141
I1050
aI6
aI8
aa(lp142
I1236
aI2
aI9
aa(lp143
I2150
aI10
aI20
aa(lp144
I9142
aI11
aI38
aa(lp145
I9500
aI12
aI133
aa(lp146
I2441
aI2
aI1
aa(lp147
I2182
aI13
aI7
aa(lp148
I1035
aI2
aI1
aa(lp149
I6863
aI9
aI55
aa(lp150
I2151
aI0
aI5
aa(lp151
I1917
aI6
aI1
aa(lp152
I4050
aI3
aI20
aa(lp153
I5772
aI23
aI285
aa(lp154
I1894
aI12
aI18
aa(lp155
I136
aI0
aI1
aa(lp156
I2925
aI0
aI7
aa(lp157
I10352
aI12
aI35
aa(lp158
I4531
aI18
aI20
aa(lp159
I384
aI34
aI3
aa(lp160
I1408
aI3
aI8
aa(lp161
I40
aI0
aI1
aa(lp162
I5618
aI3
aI9
aa(lp163
I926
aI0
aI3
aa(lp164
I1474
aI8
aI6
aa(lp165
I15209
aI6
aI31
aa(lp166
I16615
aI7
aI18
aa(lp167
I1335
aI0
aI4
aa(lp168
I2829
aI8
aI13
aa(lp169
I397
aI3
aI1
aa(lp170
I833
aI0
aI2
aa(lp171
I942
aI1
aI2
aa(lp172
I1719
aI2
aI15
aa(lp173
I3430
aI8
aI45
aa(lp174
I2012
aI1
aI5
aa(lp175
I11368
aI27
aI112
aa(lp176
I1280
aI61
aI57
aa(lp177
I879
aI14
aI21
aa(lp178
I223
aI1
aI8
aa(lp179
I1909
aI11
aI41
aa(lp180
I2014
aI13
aI52
aa(lp181
I4823
aI1
aI13
aa(lp182
I2550
aI16
aI57
aa(lp183
I5438
aI26
aI82
aa(lp184
I1495
aI0
aI1
aa(lp185
I11111
aI25
aI13
aa(lp186
I549
aI1
aI6
aa(lp187
I1521
aI1
aI2
aa(lp188
I1234
aI3
aI3
aa(lp189
I47
aI0
aI1
aa(lp190
I1669
aI68
aI35
aa(lp191
I3193
aI12
aI12
aa(lp192
I4919
aI148
aI25
aa(lp193
I2734
aI22
aI73
aa(lp194
I1040
aI13
aI44
aa(lp195
I4810
aI10
aI65
aa(lp196
I971
aI0
aI2
aa(lp197
I2649
aI3
aI5
aa(lp198
I1474
aI2
aI7
aa(lp199
I4702
aI0
aI8
aa(lp200
I6656
aI7
aI17
aa(lp201
I2604
aI3
aI9
aa(lp202
I2604
aI117
aI116
aa(lp203
I403
aI0
aI1
aa(lp204
I1785
aI16
aI51
aa(lp205
I398
aI0
aI1
aa(lp206
I638
aI0
aI7
aa(lp207
I2511
aI1
aI4
aa(lp208
I2806
aI13
aI12
aa(lp209
I724
aI0
aI2
aa(lp210
I4241
aI12
aI22
aa(lp211
I438
aI0
aI1
aa(lp212
I4135
aI15
aI38
aa(lp213
I6288
aI6
aI51
aa(lp214
I20458
aI28
aI224
aa(lp215
I4699
aI107
aI35
aa(lp216
I1306
aI1
aI3
aa(lp217
I1678
aI1
aI4
aa(lp218
I1178
aI0
aI2
aa(lp219
I363
aI0
aI2
aa(lp220
I4282
aI16
aI27
aa(lp221
I26135
aI51
aI175
aa(lp222
I3425
aI0
aI6
aa(lp223
I903
aI3
aI9
aa(lp224
I5140
aI20
aI43
aa(lp225
I6862
aI49
aI87
aa(lp226
I3335
aI9
aI10
aa(lp227
I3712
aI20
aI32
aa(lp228
I3210
aI3
aI24
aa(lp229
I4227
aI7
aI16
aa(lp230
I16175
aI43
aI125
aa(lp231
I1219
aI2
aI2
aa(lp232
I1258
aI15
aI27
aa(lp233
I2340
aI17
aI3
aa(lp234
I411
aI1
aI3
aa(lp235
I1307
aI2
aI5
aa(lp236
I586
aI1
aI3
aa(lp237
I2835
aI4
aI12
aa(lp238
I2737
aI9
aI5
aa(lp239
I950
aI2
aI4
aa(lp240
I1368
aI12
aI6
aa(lp241
I2017
aI0
aI3
aa(lp242
I663
aI1
aI4
aa(lp243
I4630
aI74
aI147
aa(lp244
I2361
aI11
aI12
aa(lp245
I10502
aI2
aI10
aa(lp246
I8916
aI15
aI65
aa(lp247
I747
aI7
aI1
aa(lp248
I1175
aI15
aI46
aa(lp249
I41170
aI6
aI48
aa(lp250
I3869
aI0
aI1
aa(lp251
I4152
aI0
aI2
aa(lp252
I4196
aI0
aI2
aa(lp253
I4399
aI0
aI3
aa(lp254
I4468
aI0
aI4
aa(lp255
I929
aI4
aI3
aa(lp256
I4548
aI1
aI3
aa(lp257
I1951
aI1
aI5
aa(lp258
I10702
aI20
aI69
aa(lp259
I1611
aI5
aI16
aa(lp260
I4793
aI19
aI50
aa(lp261
I408
aI0
aI1
aa(lp262
I6743
aI11
aI25
aa(lp263
I319
aI2
aI3
aa(lp264
I1097
aI0
aI4
aa(lp265
I2898
aI12
aI27
aa(lp266
I14757
aI40
aI68
aa(lp267
I10100
aI34
aI155
aa(lp268
I639
aI2
aI3
aa(lp269
I6039
aI27
aI25
aa(lp270
I4613
aI9
aI108
aa(lp271
I3829
aI15
aI30
aa(lp272
I8078
aI18
aI68
aa(lp273
I19977
aI7
aI31
aa(lp274
I4042
aI0
aI1
aa(lp275
I4151
aI0
aI2
aa(lp276
I2826
aI0
aI1
aa(lp277
I2693
aI0
aI2
aa(lp278
I5424
aI14
aI25
aa(lp279
I45822
aI297
aI902
aa(lp280
I5044
aI7
aI42
aa(lp281
I5895
aI60
aI117
aa(lp282
I5229
aI8
aI14
aa(lp283
I765
aI95
aI8
aa(lp284
I8527
aI18
aI52
aa(lp285
I3133
aI2
aI10
aa(lp286
I979
aI0
aI5
aa(lp287
I4225
aI58
aI49
aa(lp288
I1403
aI0
aI5
aa(lp289
I2142
aI30
aI8
aa(lp290
I3342
aI30
aI31
aa(lp291
I767
aI2
aI1
aa(lp292
I3109
aI0
aI6
aa(lp293
I693
aI0
aI2
aa(lp294
I75224
aI337
aI69
aa(lp295
I3155
aI4
aI32
aa(lp296
I5077
aI0
aI1
aa(lp297
I629
aI7
aI3
aa(lp298
I16070
aI12
aI32
aa(lp299
I12836
aI3
aI30
aa(lp300
I16156
aI3
aI39
aa(lp301
I11382
aI0
aI18
aa(lp302
I14790
aI1
aI37
aa(lp303
I4669
aI5
aI11
aa(lp304
I5995
aI15
aI74
aa(lp305
I9249
aI4
aI6
aa(lp306
I4397
aI8
aI14
aa(lp307
I1553
aI6
aI6
aa(lp308
I1573
aI4
aI12
aa(lp309
I267
aI0
aI3
aa(lp310
I16816
aI10
aI64
aa(lp311
I4466
aI6
aI45
aa(lp312
I4929
aI4
aI21
aa(lp313
I3678
aI0
aI2
aa(lp314
I7116
aI256
aI88
aa(lp315
I1187
aI12
aI5
aa(lp316
I788
aI0
aI2
aa(lp317
I5668
aI33
aI50
aa(lp318
I439
aI0
aI5
aa(lp319
I5873
aI6
aI25
aa(lp320
I2277
aI12
aI16
aa(lp321
I1012
aI0
aI2
aa(lp322
I7256
aI4
aI17
aa(lp323
I1921
aI1
aI3
aa(lp324
I225
aI0
aI2
aa(lp325
I961
aI0
aI1
aa(lp326
I4021
aI1
aI6
aa(lp327
I1631
aI1
aI14
aa(lp328
I4305
aI34
aI72
aa(lp329
I4435
aI1
aI18
aa(lp330
I2597
aI1
aI2
aa(lp331
I1091
aI0
aI2
aa(lp332
I615
aI2
aI6
aa(lp333
I6080
aI14
aI9
aa(lp334
I12401
aI3
aI13
aa(lp335
I581
aI1
aI12
aa(lp336
I3519
aI7
aI42
aa(lp337
I4004
aI25
aI88
aa(lp338
I1351
aI5
aI11
aa(lp339
I1018
aI2
aI5
aa(lp340
I8762
aI3
aI2
aa(lp341
I3585
aI0
aI10
aa(lp342
I8472
aI13
aI66
aa(lp343
I873
aI9
aI11
aa(lp344
I459
aI4
aI6
aa(lp345
I299
aI7
aI5
aa(lp346
I280
aI7
aI1
aa(lp347
I2554
aI1
aI6
aa(lp348
I7083
aI10
aI14
aa(lp349
I4073
aI12
aI46
aa(lp350
I21719
aI6
aI17
aa(lp351
I719
aI0
aI2
aa(lp352
I762
aI0
aI6
aa(lp353
I2781
aI2
aI10
aa(lp354
I5952
aI10
aI75
aa(lp355
I536
aI1
aI4
aa(lp356
I727
aI4
aI5
aa(lp357
I11455
aI4
aI13
aa(lp358
I6184
aI20
aI26
aa(lp359
I1810
aI3
aI10
aa(lp360
I1426
aI3
aI22
aa(lp361
I1166
aI1
aI5
aa(lp362
I80
aI0
aI3
aa(lp363
I2368
aI20
aI12
aa(lp364
I478
aI0
aI1
aa(lp365
I1833
aI5
aI28
aa(lp366
I442
aI1
aI4
aa(lp367
I5069
aI1
aI2
aa(lp368
I8920
aI17
aI44
aa(lp369
I2612
aI4
aI15
aa(lp370
I2324
aI11
aI11
aa(lp371
I8046
aI12
aI39
aa(lp372
I9528
aI18
aI43
aa(lp373
I910
aI2
aI5
aa(lp374
I573
aI0
aI3
aa(lp375
I715
aI11
aI23
aa(lp376
I1894
aI21
aI9
aa(lp377
I2641
aI5
aI26
aa(lp378
I584
aI0
aI2
aa(lp379
I2502
aI40
aI34
aa(lp380
I324
aI0
aI2
aa(lp381
I3003
aI28
aI23
aa(lp382
I145
aI0
aI2
aa(lp383
I1036
aI8
aI8
aa(lp384
I1240
aI2
aI10
aa(lp385
I144
aI0
aI2
aa(lp386
I1498
aI4
aI5
aa(lp387
I2982
aI9
aI25
aa(lp388
I1745
aI6
aI47
aa(lp389
I509
aI2
aI3
aa(lp390
I377
aI1
aI2
aa(lp391
I2607
aI1
aI4
aa(lp392
I1096
aI2
aI6
aa(lp393
I307
aI0
aI3
aa(lp394
I4318
aI0
aI7
aa(lp395
I4135
aI14
aI36
aa(lp396
I6217
aI23
aI117
aa(lp397
I1385
aI10
aI36
aa(lp398
I1027
aI1
aI1
aa(lp399
I756
aI0
aI6
aa(lp400
I3217
aI1
aI14
aa(lp401
I1236
aI4
aI12
aa(lp402
I2112
aI24
aI33
aa(lp403
I1604
aI5
aI10
aa(lp404
I919
aI2
aI3
aa(lp405
I1786
aI15
aI49
aa(lp406
I5873
aI15
aI132
aa(lp407
I7221
aI3
aI6
aa(lp408
I11912
aI3
aI3
aa(lp409
I2254
aI9
aI39
aa(lp410
I5142
aI0
aI5
aa(lp411
I462
aI0
aI4
aa(lp412
I450
aI0
aI1
aa(lp413
I671
aI0
aI4
aa(lp414
I25197
aI6
aI26
aa(lp415
I11928
aI64
aI323
aa(lp416
I4554
aI28
aI51
aa(lp417
I2587
aI1
aI10
aa(lp418
I1585
aI0
aI3
aa(lp419
I3334
aI0
aI3
aa(lp420
I6742
aI4
aI35
aa(lp421
I9120
aI126
aI370
aa(lp422
I2416
aI5
aI28
aa(lp423
I198
aI15
aI3
aa(lp424
I6919
aI58
aI259
aa(lp425
I405
aI2
aI2
aa(lp426
I383
aI0
aI2
aa(lp427
I1202
aI0
aI3
aa(lp428
I2429
aI2
aI4
aa(lp429
I5952
aI29
aI169
aa(lp430
I6119
aI9
aI73
aa(lp431
I554
aI15
aI8
aa(lp432
I1003
aI0
aI5
aa(lp433
I472
aI23
aI12
aa(lp434
I1382
aI3
aI7
aa(lp435
I841
aI0
aI2
aa(lp436
I773
aI1
aI9
aa(lp437
I468
aI2
aI6
aa(lp438
I569
aI5
aI7
aa(lp439
I835
aI2
aI7
aa(lp440
I3887
aI15
aI22
aa(lp441
I1312
aI1
aI18
aa(lp442
I2241
aI1
aI20
aa(lp443
I426
aI0
aI2
aa(lp444
I2447
aI7
aI26
aa(lp445
I802
aI0
aI2
aa(lp446
I1322
aI1
aI26
aa(lp447
I3614
aI9
aI20
aa(lp448
I4077
aI6
aI16
aa(lp449
I1457
aI0
aI5
aa(lp450
I3136
aI111
aI78
aa(lp451
I2105
aI11
aI43
aa(lp452
I1385
aI16
aI22
aa(lp453
I725
aI0
aI1
aa(lp454
I4335
aI1
aI7
aa(lp455
I608
aI3
aI1
aa(lp456
I5293
aI12
aI29
aa(lp457
I1022
aI1
aI2
aa(lp458
I1056
aI2
aI1
aa(lp459
I520
aI2
aI3
aa(lp460
I5046
aI20
aI57
aa(lp461
I433
aI0
aI1
aa(lp462
I301
aI0
aI6
aa(lp463
I728
aI0
aI1
aa(lp464
I2332
aI8
aI25
aa(lp465
I534
aI0
aI13
aa(lp466
I1116
aI13
aI16
aa(lp467
I1635
aI7
aI72
aa(lp468
I439
aI1
aI2
aa(lp469
I1635
aI7
aI23
aa(lp470
I431
aI1
aI4
aa(lp471
I3578
aI54
aI39
aa(lp472
I1517
aI7
aI2
aa(lp473
I328
aI0
aI1
aa(lp474
I213
aI0
aI2
aa(lp475
I1429
aI14
aI38
aa(lp476
I2660
aI14
aI183
aa(lp477
I806
aI9
aI12
aa(lp478
I372
aI0
aI2
aa(lp479
I973
aI5
aI9
aa(lp480
I15160
aI13
aI190
aa(lp481
I256
aI0
aI3
aa(lp482
I166
aI1
aI4
aa(lp483
I1779
aI26
aI22
aa(lp484
I482
aI4
aI47
aa(lp485
I544
aI1
aI2
aa(lp486
I434
aI3
aI13
aa(lp487
I946
aI0
aI7
aa.