(lp0
S'10002312044_3f15387a54_z.jpg'
p1
aS'10004747015_e8764057bc_z.jpg'
p2
aS'10038241044_b2d5ffcc21_z.jpg'
p3
aS'10043339443_678964210c_z.jpg'
p4
aS'10044996986_94ece70bf7_z.jpg'
p5
aS'10056705865_893a9f5a7f_z.jpg'
p6
aS'10060392546_c0b7a3d804_z.jpg'
p7
aS'10060588166_fb501b1d45_z.jpg'
p8
aS'10076818705_fdb901379c_z.jpg'
p9
aS'10089173704_c573335d52_z.jpg'
p10
aS'10097554243_d20b374446_z.jpg'
p11
aS'10101169414_411c6bdfd2_z.jpg'
p12
aS'10105119295_e015fc729c_z.jpg'
p13
aS'10108048616_40e06c447e_z.jpg'
p14
aS'10114788024_b06a755416_z.jpg'
p15
aS'10114834485_521d8e9505_z.jpg'
p16
aS'10116287505_f88d12c2cb_z.jpg'
p17
aS'10117476496_ac1a52c272_z.jpg'
p18
aS'10119975993_bed42bc6af_z.jpg'
p19
aS'10120511284_f385380d19_z.jpg'
p20
aS'10120999203_ed7fd8008a_z.jpg'
p21
aS'10126046283_4df3a88558_z.jpg'
p22
aS'10128965144_2fec405354_z.jpg'
p23
aS'10135322096_ba01cc1546_z.jpg'
p24
aS'10136813606_edcaec6a5c_z.jpg'
p25
aS'10140958865_40c273dcbe_z.jpg'
p26
aS'10142996136_697f149bd6_z.jpg'
p27
aS'10145898974_ee44d9df20_z.jpg'
p28
aS'10146639556_cd99e744b2_z.jpg'
p29
aS'10149249123_7ccf1991fb_z.jpg'
p30
aS'10150158593_68d8d6f7c6_z.jpg'
p31
aS'10154951066_b295ece2fe_z.jpg'
p32
aS'10157253733_6f5605218a_z.jpg'
p33
aS'10166162964_e6bb088521_z.jpg'
p34
aS'10167313316_64aa151977_z.jpg'
p35
aS'10170289096_a6effbefc1_z.jpg'
p36
aS'10171130115_3f82064216_z.jpg'
p37
aS'10174104536_fc93cdd6b2_z.jpg'
p38
aS'10189097736_7e7c7c219d_z.jpg'
p39
aS'10199947655_1ee6b3678d_z.jpg'
p40
aS'10205002016_02df32051a_z.jpg'
p41
aS'10210925345_da7328e0a9_z.jpg'
p42
aS'10211535334_1987410a10_z.jpg'
p43
aS'10212285756_2f58ca40ed_z.jpg'
p44
aS'10220449794_ae05ce0567_z.jpg'
p45
aS'10222590274_b69953e3a2_z.jpg'
p46
aS'10222685206_ce3052b0a1_z.jpg'
p47
aS'10223220063_6cfaa69110_z.jpg'
p48
aS'10223334335_f6551e632d_z.jpg'
p49
aS'10228567874_7dfb1cbceb_z.jpg'
p50
aS'10231044664_40ca10bd9d_z.jpg'
p51
aS'10237664575_89e3f5c6a0_z.jpg'
p52
aS'10238273544_4f9aae66b3_z.jpg'
p53
aS'10243829334_ab65db5953_z.jpg'
p54
aS'10247893205_e713dbf144_z.jpg'
p55
aS'10250209446_0a6c1f49f4_z.jpg'
p56
aS'10256757373_ce51bb6922_z.jpg'
p57
aS'10271679956_17d35ae696_z.jpg'
p58
aS'10271814563_01f057a509_z.jpg'
p59
aS'10279551513_c19bd1c6b6_z.jpg'
p60
aS'10286267625_9f74296eb4_z.jpg'
p61
aS'10306160024_04137d8976_z.jpg'
p62
aS'10307941023_14cda1f44a_z.jpg'
p63
aS'10312179796_14a60280e2_z.jpg'
p64
aS'10312463975_8ba8b5c408_z.jpg'
p65
aS'10312473535_b6b5654229_z.jpg'
p66
aS'10312596883_8793ba1435_z.jpg'
p67
aS'10317010726_92f53bf569_z.jpg'
p68
aS'10319959275_eab646bedb_z.jpg'
p69
aS'10324601345_2be1a356d3_z.jpg'
p70
aS'10326922773_60fdf3f663_z.jpg'
p71
aS'10331359953_5698bd1bfd_z.jpg'
p72
aS'10332276953_9a15a39bfe_z.jpg'
p73
aS'10338089594_3391092ea4_z.jpg'
p74
aS'10338622554_9c0b950d7c_z.jpg'
p75
aS'10338624014_0e93f03cc8_z.jpg'
p76
aS'10338644956_3dba5b3c5b_z.jpg'
p77
aS'10338645426_a23dd35d14_z.jpg'
p78
aS'10338810613_c89ffbd0c2_z.jpg'
p79
aS'10342295344_48fcd58f14_z.jpg'
p80
aS'10345639424_75eb468092_z.jpg'
p81
aS'10346564306_03a03cc98d_z.jpg'
p82
aS'10346788633_0e00f041b1_z.jpg'
p83
aS'10347885436_54cf6c656a_z.jpg'
p84
aS'10348071643_037f9e9e40_z.jpg'
p85
aS'10348283156_b7c7a1e0bb_z.jpg'
p86
aS'10355978234_e3d057c452_z.jpg'
p87
aS'10364770716_53a318f8e8_z.jpg'
p88
aS'10367357256_ed5532f7aa_z.jpg'
p89
aS'10373110105_981b05a8a6_z.jpg'
p90
aS'10377114565_34b322d315_z.jpg'
p91
aS'10380810513_686a8333a0_z.jpg'
p92
aS'10384654414_ec8de7eb4b_z.jpg'
p93
aS'10390328765_222e8f7e0f_z.jpg'
p94
aS'10392733565_4c1ba0ecf1_z.jpg'
p95
aS'10402799383_cf167ab8ae_z.jpg'
p96
aS'10403585694_6cf8e92876_z.jpg'
p97
aS'10404449254_07b5554a86_z.jpg'
p98
aS'10407517435_92831e79ea_z.jpg'
p99
aS'10410552426_98f9741310_z.jpg'
p100
aS'10425922183_e1178e0391_z.jpg'
p101
aS'10426350123_26df7b22e9_z.jpg'
p102
aS'10435003045_6870fe3e1c_z.jpg'
p103
aS'10435033123_cabc6757c7_z.jpg'
p104
aS'10436897503_d93c7f4c8f_z.jpg'
p105
aS'10439686604_a526ae1e9d_z.jpg'
p106
aS'10441832694_5f2e6f41ee_z.jpg'
p107
aS'10445512364_4b2d95d7bb_z.jpg'
p108
aS'10445663124_4bc556ef41_z.jpg'
p109
aS'10447604435_13f03e4ba9_z.jpg'
p110
aS'10447955355_34edea9cec_z.jpg'
p111
aS'10447993405_c9a757f451_z.jpg'
p112
aS'10456009543_f8a3caf1f9_z.jpg'
p113
aS'10460839496_59efcb0d2f_z.jpg'
p114
aS'10461009635_bbb32285c3_z.jpg'
p115
aS'10461238685_3d430028c6_z.jpg'
p116
aS'10463994824_943b9186f2_z.jpg'
p117
aS'10464176603_78605b62c3_z.jpg'
p118
aS'10467993053_16d4bb13c6_z.jpg'
p119
aS'10479566253_e781c26af9_z.jpg'
p120
aS'10482051266_a86332e347_z.jpg'
p121
aS'10490760875_2856067656_z.jpg'
p122
aS'10491455835_62bb93b575_z.jpg'
p123
aS'10500457273_c1c0acb27b_z.jpg'
p124
aS'10508152873_6c02074e4d_z.jpg'
p125
aS'10509515993_32b27146d0_z.jpg'
p126
aS'10509629643_f45fd20dbe_z.jpg'
p127
aS'10534088136_e466127159_z.jpg'
p128
aS'10534265063_76c3ebd296_z.jpg'
p129
aS'10540635645_667c2b6452_z.jpg'
p130
aS'10543142744_716dc7fb15_z.jpg'
p131
aS'10555095675_bbe8510c75_z.jpg'
p132
aS'10555133366_3ff2862880_z.jpg'
p133
aS'10560184373_5685671ec1_z.jpg'
p134
aS'10566163244_dd6901944e_z.jpg'
p135
aS'10567386953_d124c8f6b2_z.jpg'
p136
aS'10587799006_926fe1f8d7_z.jpg'
p137
aS'10587829176_f3365a5053_z.jpg'
p138
aS'10612767803_f646dd87e2_z.jpg'
p139
aS'10633931536_d14e5d36a9_z.jpg'
p140
aS'10642479383_728fa6633b_z.jpg'
p141
aS'10645936554_76f5ed2840_z.jpg'
p142
aS'10652016403_d946721174_z.jpg'
p143
aS'10664975695_3ef4f9dd14_z.jpg'
p144
aS'10685879494_97024e117c_z.jpg'
p145
aS'10685979913_90d26d0814_z.jpg'
p146
aS'10690189853_07ab15ae85_z.jpg'
p147
aS'10695380784_aaf7875634_z.jpg'
p148
aS'10698555815_b38efe222a_z.jpg'
p149
aS'10704442784_43e4e1d913_z.jpg'
p150
aS'10708395775_d3479e2985_z.jpg'
p151
aS'10709417575_231048c8fb_z.jpg'
p152
aS'10713360073_f65ff4043f_z.jpg'
p153
aS'10716978313_b1d57f74b4_z.jpg'
p154
aS'10718346116_274b1e9efc_z.jpg'
p155
aS'10725804515_77b0e667b2_z.jpg'
p156
aS'10738370296_97fcfe3963_z.jpg'
p157
aS'10739923134_69c905d476_z.jpg'
p158
aS'10743668544_ef4cb1cb53_z.jpg'
p159
aS'10750438845_e09770ef15_z.jpg'
p160
aS'10755544764_74f3a743af_z.jpg'
p161
aS'10759624774_eef12cc6a6_z.jpg'
p162
aS'10765708005_e1d4821a93_z.jpg'
p163
aS'10766561734_961a977a9c_z.jpg'
p164
aS'10770326565_7df8b18e42_z.jpg'
p165
aS'10770606453_07e2f1aa9a_z.jpg'
p166
aS'10773599015_834bdde85f_z.jpg'
p167
aS'10776117485_c98c254a1c_z.jpg'
p168
aS'10778478153_ecc19cbc7d_z.jpg'
p169
aS'10785933815_11221b599e_z.jpg'
p170
aS'10785944176_5d2ca6e148_z.jpg'
p171
aS'10789850755_907a970bfc_z.jpg'
p172
aS'10790141444_4718e912dd_z.jpg'
p173
aS'10794956446_0d7838582e_z.jpg'
p174
aS'10798931106_00d43b6968_z.jpg'
p175
aS'10802003046_fd339279bb_z.jpg'
p176
aS'10802092126_65dabb6db5_z.jpg'
p177
aS'10804699074_a2757cb5c2_z.jpg'
p178
aS'10805373653_6ddbff57c1_z.jpg'
p179
aS'10806135275_03d81bc859_z.jpg'
p180
aS'10811764384_ab48c10440_z.jpg'
p181
aS'10818675893_903a56d814_z.jpg'
p182
aS'10822875546_e8500b020c_z.jpg'
p183
aS'10823303583_069275bb39_z.jpg'
p184
aS'10824091984_4cfdac3e1a_z.jpg'
p185
aS'10830020865_811d918559_z.jpg'
p186
aS'10837753314_f038a8f595_z.jpg'
p187
aS'10842807745_c39cbb850e_z.jpg'
p188
aS'10845314766_5a77baaffb_z.jpg'
p189
aS'10851201265_f203f4906c_z.jpg'
p190
aS'10854871444_0d5f60a135_z.jpg'
p191
aS'10857038835_2f58706365_z.jpg'
p192
aS'10862344184_55508d5d6e_z.jpg'
p193
aS'10865795074_a1261362f6_z.jpg'
p194
aS'10866248843_22a37857fa_z.jpg'
p195
aS'10869495094_dd8eb06375_z.jpg'
p196
aS'10870386953_215fa302ef_z.jpg'
p197
aS'10871690506_3a340746c4_z.jpg'
p198
aS'10883609175_b981794e37_z.jpg'
p199
aS'10885313283_fe1b36ec94_z.jpg'
p200
aS'10885835094_f66839aece_z.jpg'
p201
aS'10887899724_f033152e78_z.jpg'
p202
aS'10890046315_39e268b2ff_z.jpg'
p203
aS'10891550774_49eb335d2a_z.jpg'
p204
aS'10900410873_9f076b639a_z.jpg'
p205
aS'10905055344_ba7e3e09be_z.jpg'
p206
aS'10905485724_a559081f6e_z.jpg'
p207
aS'10905932096_9a47c302f3_z.jpg'
p208
aS'10907458253_8a4db9ae0f_z.jpg'
p209
aS'10909741383_82a7255f45_z.jpg'
p210
aS'10910863683_a343a409ef_z.jpg'
p211
aS'10911996786_a5b43e2811_z.jpg'
p212
aS'10915295006_371aee52a3_z.jpg'
p213
aS'10920687616_6e453aaa11_z.jpg'
p214
aS'10922485826_019b3596d9_z.jpg'
p215
aS'10925651943_89935f5e58_z.jpg'
p216
aS'10933653096_dcb2fcb045_z.jpg'
p217
aS'10933872373_666fda74a2_z.jpg'
p218
aS'10936800864_1fedffdd9b_z.jpg'
p219
aS'10949376813_c40ae88f45_z.jpg'
p220
aS'10949387905_beb43f5644_z.jpg'
p221
aS'10953979645_e46f7d799b_z.jpg'
p222
aS'10965351685_3b2dcd6887_z.jpg'
p223
aS'10968260665_3b7a38683d_z.jpg'
p224
aS'10977220606_fe87e713b5_z.jpg'
p225
aS'10980561715_8b0994745e_z.jpg'
p226
aS'10980752934_8b7b6d467c_z.jpg'
p227
aS'10988182543_94851b1af5_z.jpg'
p228
aS'10988665465_d744fe6cd0_z.jpg'
p229
aS'10989570504_4ccf064a1f_z.jpg'
p230
aS'10989742166_0159a58a8d_z.jpg'
p231
aS'10992265913_63687ca4dd_z.jpg'
p232
aS'10992428373_5595ee0f9e_z.jpg'
p233
aS'10999425254_5a4cda47a6_z.jpg'
p234
aS'11002140913_6f342f8ebb_z.jpg'
p235
aS'11004493445_3c6f8eec7f_z.jpg'
p236
aS'11011291683_5a064c9e0f_z.jpg'
p237
aS'11014871126_ed51a239df_z.jpg'
p238
aS'11014999503_b16c83ee1a_z.jpg'
p239
aS'11017929895_ba21560ebf_z.jpg'
p240
aS'11026047576_43c4b661e9_z.jpg'
p241
aS'11026055525_4d836f7dd3_z.jpg'
p242
aS'11026384005_1a618c9cda_z.jpg'
p243
aS'11028180746_4440da18bb_z.jpg'
p244
aS'11031797945_36d444ab9a_z.jpg'
p245
aS'11036154844_57ca4ec5c6_z.jpg'
p246
aS'11039990063_8b6af99bed_z.jpg'
p247
aS'11044392253_5148fb5183_z.jpg'
p248
aS'11048417456_ee5a3a2429_z.jpg'
p249
aS'11055977646_3c09f508d1_z.jpg'
p250
aS'11056336833_32617eb7d3_z.jpg'
p251
aS'11056722886_f7faa44907_z.jpg'
p252
aS'11057042183_24f984815b_z.jpg'
p253
aS'11057172373_4a13d1ea97_z.jpg'
p254
aS'11067416794_dfe5ea204c_z.jpg'
p255
aS'11067865053_49474e5048_z.jpg'
p256
aS'11086039375_4505e8c141_z.jpg'
p257
aS'11089920323_40289ee9a5_z.jpg'
p258
aS'11090394834_13a4f5b2e3_z.jpg'
p259
aS'11094666873_40fd30c6a3_z.jpg'
p260
aS'11099417554_02f97bcb42_z.jpg'
p261
aS'11101678423_2ffbdcc323_z.jpg'
p262
aS'11101778366_8d307209f9_z.jpg'
p263
aS'11102591794_4cfc367895_z.jpg'
p264
aS'11109411204_142d2b9ab3_z.jpg'
p265
aS'11114814675_3955b958b1_z.jpg'
p266
aS'11119139516_6cf97b9034_z.jpg'
p267
aS'11128624436_80790fbfe9_z.jpg'
p268
aS'11135449884_283c083392_z.jpg'
p269
aS'11139094364_6281e36475_z.jpg'
p270
aS'11150908363_0d76c2f5d7_z.jpg'
p271
aS'11159092504_d4cc525258_z.jpg'
p272
aS'11162737005_68cf099c0d_z.jpg'
p273
aS'11162782314_a6fbc3a310_z.jpg'
p274
aS'11162901233_0240c72dc4_z.jpg'
p275
aS'11163788216_318ef222ac_z.jpg'
p276
aS'11163935553_3f43d84a25_z.jpg'
p277
aS'11167013725_d587d15da0_z.jpg'
p278
aS'11170313024_bb54e66bcf_z.jpg'
p279
aS'11177416236_4d32717b62_z.jpg'
p280
aS'11184019903_b5350c83d5_z.jpg'
p281
aS'11189210103_82eb1e2e57_z.jpg'
p282
aS'11189673934_de2385cab9_z.jpg'
p283
aS'11193854196_9ac3d3738b_z.jpg'
p284
aS'11194895845_441c2106e8_z.jpg'
p285
aS'11196585106_b9488cf65b_z.jpg'
p286
aS'11206824263_931be804e0_z.jpg'
p287
aS'11210706586_eb3cd19bf1_z.jpg'
p288
aS'11214796886_25ac1b4088_z.jpg'
p289
aS'11223935113_653734cb29_z.jpg'
p290
aS'11227669054_f32cfc5195_z.jpg'
p291
aS'11231755183_e82434f3d2_z.jpg'
p292
aS'11231821055_eeed90785d_z.jpg'
p293
aS'11236954573_e090bee5eb_z.jpg'
p294
aS'11241372944_b8210ff354_z.jpg'
p295
aS'11248005315_298d750a61_z.jpg'
p296
aS'11260903723_3291818a70_z.jpg'
p297
aS'11265705126_7547e92503_z.jpg'
p298
aS'11265717346_0ae55eaeac_z.jpg'
p299
aS'11265791204_25d3b2b127_z.jpg'
p300
aS'11265854373_f2f73efcec_z.jpg'
p301
aS'11266169534_eddf147961_z.jpg'
p302
aS'11277876575_668e10a1ea_z.jpg'
p303
aS'11280362813_83300fd024_z.jpg'
p304
aS'11280540133_2ed3cb652d_z.jpg'
p305
aS'11284175545_614456bd64_z.jpg'
p306
aS'11285365365_891c352d86_z.jpg'
p307
aS'11295577283_c6767598a2_z.jpg'
p308
aS'11303048626_f5c3513be0_z.jpg'
p309
aS'11315099785_f54a610594_z.jpg'
p310
aS'11325271726_95921a36de_z.jpg'
p311
aS'11328288255_9626e76e9e_z.jpg'
p312
aS'11339156845_0e29806f74_z.jpg'
p313
aS'11340623305_b8a1c9a3d8_z.jpg'
p314
aS'11341485256_e77ee1c0a6_z.jpg'
p315
aS'11342802793_df86846c38_z.jpg'
p316
aS'11345377226_314e098c3a_z.jpg'
p317
aS'11348664436_f471fe0399_z.jpg'
p318
aS'11351531274_d707d613ea_z.jpg'
p319
aS'11352498483_83b3d727c2_z.jpg'
p320
aS'11354133114_789b6f66b0_z.jpg'
p321
aS'11362552645_679c3320bf_z.jpg'
p322
aS'11364341364_b5d87bd959_z.jpg'
p323
aS'11368091633_f5507dc13c_z.jpg'
p324
aS'11372760685_a0f0f12456_z.jpg'
p325
aS'11384992133_047e0cc602_z.jpg'
p326
aS'11385756426_e566174ccf_z.jpg'
p327
aS'11385786054_c2e516ae81_z.jpg'
p328
aS'11389243033_dfcfb49d7d_z.jpg'
p329
aS'11390345985_26cc7e43fb_z.jpg'
p330
aS'11393833085_26015b39a9_z.jpg'
p331
aS'11398885645_0e0c0facce_z.jpg'
p332
aS'11399668543_b18c850d93_z.jpg'
p333
aS'11414927626_c6c69d650b_z.jpg'
p334
aS'11422905364_8c826d79a3_z.jpg'
p335
aS'11426499233_762e320c75_z.jpg'
p336
aS'11429357073_7f98c1c62c_z.jpg'
p337
aS'11439331393_f2f692dd8c_z.jpg'
p338
aS'11442746903_c5cfe38a2f_z.jpg'
p339
aS'11445129425_2bf6eb722f_z.jpg'
p340
aS'11455006143_f169a025bf_z.jpg'
p341
aS'11456035384_e2a5989eaa_z.jpg'
p342
aS'11461796345_052779ff6e_z.jpg'
p343
aS'11466032663_301a1cbf82_z.jpg'
p344
aS'11466826946_40fdd4d0e1_z.jpg'
p345
aS'11470220535_b39493991b_z.jpg'
p346
aS'11471811543_5f3a3ab78f_z.jpg'
p347
aS'11476174794_4b38642742_z.jpg'
p348
aS'11497519896_1fd650b551_z.jpg'
p349
aS'11501949224_dac2b41c91_z.jpg'
p350
aS'11512395024_e82048b499_z.jpg'
p351
aS'11553594414_e588651d1c_z.jpg'
p352
aS'11557012273_40b3e1e1fa_z.jpg'
p353
aS'11561120814_4f407c01a6_z.jpg'
p354
aS'11563485236_497f7171cf_z.jpg'
p355
aS'11567679323_686cc00668_z.jpg'
p356
aS'11575548475_9516d4a16a_z.jpg'
p357
aS'11580847033_a09de99921_z.jpg'
p358
aS'11594071366_b732e48e66_z.jpg'
p359
aS'11602583536_f5f21666b4_z.jpg'
p360
aS'11610712433_68c90e4a35_z.jpg'
p361
aS'11614382606_82950656c8_z.jpg'
p362
aS'11616983573_1f617f90f5_z.jpg'
p363
aS'11619467174_ec8e4eb5a8_z.jpg'
p364
aS'11619990956_61a11819c0_z.jpg'
p365
aS'11624479855_f692cdd0fc_z.jpg'
p366
aS'11625973645_c29fdfd969_z.jpg'
p367
aS'11630290763_1453ace5e4_z.jpg'
p368
aS'11633368335_a8a3713843_z.jpg'
p369
aS'11633479233_3fff5f3563_z.jpg'
p370
aS'11633698783_23f326822a_z.jpg'
p371
aS'11634718146_a1609a6a57_z.jpg'
p372
aS'11638314895_ee6f299664_z.jpg'
p373
aS'11639397534_1cfaaaa339_z.jpg'
p374
aS'11642114124_86b3c917a3_z.jpg'
p375
aS'11643829843_16ba144eb7_z.jpg'
p376
aS'11646557183_a5e046b7d1_z.jpg'
p377
aS'11651991793_14610a1677_z.jpg'
p378
aS'11654115813_8a36b68ddd_z.jpg'
p379
aS'11654527054_99bb0927d3_z.jpg'
p380
aS'11655803583_c6c24cb9f5_z.jpg'
p381
aS'11657644656_931b450c3a_z.jpg'
p382
aS'11658448256_df192956e3_z.jpg'
p383
aS'11661601524_0150faf860_z.jpg'
p384
aS'11691202344_1b27390eb8_z.jpg'
p385
aS'11692660575_ca95860b50_z.jpg'
p386
aS'11693035963_4bcf6910a1_z.jpg'
p387
aS'11696502093_d596715e88_z.jpg'
p388
aS'11708839235_b20a1c3868_z.jpg'
p389
aS'11731425286_6c1b63fcb7_z.jpg'
p390
aS'11748545494_6da82910ba_z.jpg'
p391
aS'11756476873_9ba07dc409_z.jpg'
p392
aS'11770328773_29ffa6fda6_z.jpg'
p393
aS'11775559206_d6128fbbe8_z.jpg'
p394
aS'11821764423_b8de639211_z.jpg'
p395
aS'11825758554_922ae52494_z.jpg'
p396
aS'11832169635_65e84aa34e_z.jpg'
p397
aS'11833889724_9b39e085a5_z.jpg'
p398
aS'11841625793_fd3a2260c5_z.jpg'
p399
aS'11848251464_111d586533_z.jpg'
p400
aS'11860443543_a5a81247c8_z.jpg'
p401
aS'11895412824_8890f78edc_z.jpg'
p402
aS'11914051333_5c84f47732_z.jpg'
p403
aS'11924445485_2905052e02_z.jpg'
p404
aS'11924756846_f291dfd273_z.jpg'
p405
aS'11954106644_f333426e27_z.jpg'
p406
aS'11959996005_5841961036_z.jpg'
p407
aS'11993935426_b2e595a7a1_z.jpg'
p408
aS'11995059085_6c757562fd_z.jpg'
p409
aS'12029610123_1def9b0d8e_z.jpg'
p410
aS'12031602405_cd878bf5d5_z.jpg'
p411
aS'12031871173_8678a4d743_z.jpg'
p412
aS'12046357004_335c66e535_z.jpg'
p413
aS'12081114376_831e2a4dcb_z.jpg'
p414
aS'12083847326_0bf4b186fd_z.jpg'
p415
aS'12118632103_3abc273a73_z.jpg'
p416
aS'12240002594_c9a267e387_z.jpg'
p417
aS'12253675185_32c740c037_z.jpg'
p418
aS'12301251415_00122875ce_z.jpg'
p419
aS'12326536995_8441f7bac9_z.jpg'
p420
aS'12456156303_42c8537656_z.jpg'
p421
aS'12479809464_0825bed61a_z.jpg'
p422
aS'12505950563_f1ab5cc089_z.jpg'
p423
aS'12563480974_49d21d9205_z.jpg'
p424
aS'12607820135_b04e4c0b68_z.jpg'
p425
aS'12616119403_22da714140_z.jpg'
p426
aS'12658397593_582682ef81_z.jpg'
p427
aS'12675557884_8ef243ffe4_z.jpg'
p428
aS'12692910203_b7f7cbc460_z.jpg'
p429
aS'12744097134_fceff571db_z.jpg'
p430
aS'12778610995_5756dab876_z.jpg'
p431
aS'12787805303_25d920d304_z.jpg'
p432
aS'12795191375_3de8482cf4_z.jpg'
p433
aS'12830741893_beca8c0da9_z.jpg'
p434
aS'12855487214_a358df5709_z.jpg'
p435
aS'12858083294_30961c2e5f_z.jpg'
p436
aS'13012930645_33961f7bc5_z.jpg'
p437
aS'13013319564_162163f125_z.jpg'
p438
aS'13101582424_c5282f317c_z.jpg'
p439
aS'13216515864_0dd5657821_z.jpg'
p440
aS'13243873813_11dd8dac05_z.jpg'
p441
aS'13296122675_309bdc1992_z.jpg'
p442
aS'13454565365_a4009f69be_z.jpg'
p443
aS'13747104694_818ef0e9f8_z.jpg'
p444
aS'13783855745_4a7d5d2db7_z.jpg'
p445
aS'13786315614_54951b6e81_z.jpg'
p446
aS'13832886053_1ba90c5047_z.jpg'
p447
aS'13844231903_d7701a989a_z.jpg'
p448
aS'13885072089_8991b34e66_z.jpg'
p449
aS'13888819198_f74e7103ce_z.jpg'
p450
aS'13902984107_1ab6f11948_z.jpg'
p451
aS'13913460483_594baacbc3_z.jpg'
p452
aS'13916791454_06c59775c0_z.jpg'
p453
aS'13935304654_d4b1bb97d5_z.jpg'
p454
aS'13937710204_e89d5c02f8_z.jpg'
p455
aS'14130404405_a88619713d_z.jpg'
p456
aS'14142194818_6f2e781290_z.jpg'
p457
aS'14142195588_ab43775e0d_z.jpg'
p458
aS'14174987381_7f17b3a6be_z.jpg'
p459
aS'14289027866_3154bea106_z.jpg'
p460
aS'14396927685_aae5862f4e_z.jpg'
p461
aS'14549976550_9be6321c0f_z.jpg'
p462
aS'14567299296_0d3a1cafbc_z.jpg'
p463
aS'14579228525_a25cb9fef9_z.jpg'
p464
aS'14694202106_cccbb0a8a0_z.jpg'
p465
aS'14778101674_72e37c6a5d_z.jpg'
p466
aS'14798506886_d7c4486afb_z.jpg'
p467
aS'14810258268_e392abfc35_z.jpg'
p468
aS'14830250146_ffdb40cdf9_z.jpg'
p469
aS'14973881736_e70b33d92b_z.jpg'
p470
aS'14980801656_07a2140537_z.jpg'
p471
aS'14997724890_e85a860326_z.jpg'
p472
aS'15037523158_d07331ff50_z.jpg'
p473
aS'15054436526_387aac7439_z.jpg'
p474
aS'15108882537_558ec05d5c_z.jpg'
p475
aS'15199003296_e4ae7c78c5_z.jpg'
p476
aS'15286725070_06180c8300_z.jpg'
p477
aS'15306359690_a3058353ef_z.jpg'
p478
aS'15322820228_ef20d7df69_z.jpg'
p479
aS'15327235661_36d08c4567_z.jpg'
p480
aS'15445437949_7cd8b256a3_z.jpg'
p481
aS'15526046039_340a9ae183_z.jpg'
p482
aS'15545420295_519f52332a_z.jpg'
p483
aS'15606383399_11e3b7cc18_z.jpg'
p484
aS'15693260700_10c2fb4d01_z.jpg'
p485
aS'15737735979_d62186901b_z.jpg'
p486
aS'15756400830_7f19a0256c_z.jpg'
p487
a.